; Function Attrs: mustprogress nofree norecurse nosync nounwind memory(read, argmem: readwrite, inaccessiblemem: none) uwtable
define dso_local void @_ZNK15cmStateSnapshot18GetCallStackBottomEv(ptr dead_on_unwind noalias writable writeonly sret(%class.cmStateSnapshot) align 8 captures(none) %0, ptr noundef nonnull readonly align 8 captures(none) dereferenceable(24) %1) local_unnamed_addr #8 align 2 {
  %3 = getelementptr inbounds nuw i8, ptr %1, i64 8
  %.sroa.0.0.copyload6 = load ptr, ptr %3, align 8
  %.sroa.5.0..sroa_idx = getelementptr inbounds nuw i8, ptr %1, i64 16
  %4 = load ptr, ptr %.sroa.0.0.copyload6, align 8
  %invariant.gep = getelementptr i8, ptr %4, i64 -128
  %.sroa.5.011 = load i64, ptr %.sroa.5.0..sroa_idx, align 8
  %gep12 = getelementptr %"struct.cmStateDetail::SnapshotDataType", ptr %invariant.gep, i64 %.sroa.5.011
  %5 = load i32, ptr %gep12, align 8
  %switch13 = icmp ult i32 %5, 2
  %.not14 = icmp eq i64 %.sroa.5.011, 0
  %or.cond15 = or i1 %.not14, %switch13
  br i1 %or.cond15, label %.critedge, label %.lr.ph

.lr.ph:                                           ; preds = %2
  %6 = getelementptr inbounds nuw i8, ptr %.sroa.0.0.copyload6, i64 24
  %7 = load ptr, ptr %6, align 8
  %invariant.gep17 = getelementptr i8, ptr %7, i64 -8
  br label %8

8:                                                ; preds = %.lr.ph, %8
  %.sroa.5.016 = phi i64 [ %.sroa.5.011, %.lr.ph ], [ %.sroa.5.0, %8 ]
  %gep18 = getelementptr i64, ptr %invariant.gep17, i64 %.sroa.5.016
  %.sroa.5.0 = load i64, ptr %gep18, align 8
  %gep = getelementptr %"struct.cmStateDetail::SnapshotDataType", ptr %invariant.gep, i64 %.sroa.5.0
  %9 = load i32, ptr %gep, align 8
  %switch = icmp ult i32 %9, 2
  %.not = icmp eq i64 %.sroa.5.0, 0
  %or.cond = or i1 %.not, %switch
  br i1 %or.cond, label %.critedge, label %8, !llvm.loop !9

.critedge:                                        ; preds = %8, %2
  %.sroa.5.0.lcssa = phi i64 [ %.sroa.5.011, %2 ], [ %.sroa.5.0, %8 ]
  %10 = load ptr, ptr %1, align 8
  store ptr %10, ptr %0, align 8
  %11 = getelementptr inbounds nuw i8, ptr %0, i64 8
  store ptr %.sroa.0.0.copyload6, ptr %11, align 8
  %.sroa.2.0..sroa_idx.i = getelementptr inbounds nuw i8, ptr %0, i64 16
  store i64 %.sroa.5.0.lcssa, ptr %.sroa.2.0..sroa_idx.i, align 8
  ret void
}